target datalayout = "e-m:e-p270:32:32-p271:32:32-p272:64:64-i64:64-i128:128-f80:128-n8:16:32:64-S128"
target triple = "x86_64-pc-linux-gnu"

%struct.AVDRMFrameDescriptor = type { i32, [4 x %struct.AVDRMObjectDescriptor], i32, [4 x %struct.AVDRMLayerDescriptor] }
%struct.AVDRMObjectDescriptor = type { i32, i64, i64 }
%struct.AVDRMLayerDescriptor = type { i32, i32, [4 x %struct.AVDRMPlaneDescriptor] }
%struct.AVDRMPlaneDescriptor = type { i32, i64, i64 }

; Function Attrs: nounwind uwtable
define internal void @kmsgrab_free_desc(ptr noundef %0, ptr noundef %1) #1 {
  %3 = alloca ptr, align 8
  %4 = alloca ptr, align 8
  %5 = alloca ptr, align 8
  %6 = alloca i32, align 4
  store ptr %0, ptr %3, align 8, !tbaa !162
  store ptr %1, ptr %4, align 8, !tbaa !133
  call void @llvm.lifetime.start.p0(i64 8, ptr %5) #8
  %7 = load ptr, ptr %4, align 8, !tbaa !133
  store ptr %7, ptr %5, align 8, !tbaa !121
  call void @llvm.lifetime.start.p0(i64 4, ptr %6) #8
  store i32 0, ptr %6, align 4, !tbaa !43
  br label %8

8:                                                ; preds = %23, %2
  %9 = load i32, ptr %6, align 4, !tbaa !43
  %10 = load ptr, ptr %5, align 8, !tbaa !121
  %11 = getelementptr inbounds nuw %struct.AVDRMFrameDescriptor, ptr %10, i32 0, i32 0
  %12 = load i32, ptr %11, align 8, !tbaa !159
  %13 = icmp slt i32 %9, %12
  br i1 %13, label %14, label %26

14:                                               ; preds = %8
  %15 = load ptr, ptr %5, align 8, !tbaa !121
  %16 = getelementptr inbounds nuw %struct.AVDRMFrameDescriptor, ptr %15, i32 0, i32 1
  %17 = load i32, ptr %6, align 4, !tbaa !43
  %18 = sext i32 %17 to i64
  %19 = getelementptr inbounds [4 x %struct.AVDRMObjectDescriptor], ptr %16, i64 0, i64 %18
  %20 = getelementptr inbounds nuw %struct.AVDRMObjectDescriptor, ptr %19, i32 0, i32 0
  %21 = load i32, ptr %20, align 8, !tbaa !156
  %22 = call i32 @close(i32 noundef %21)
  br label %23

23:                                               ; preds = %14
  %24 = load i32, ptr %6, align 4, !tbaa !43
  %25 = add nsw i32 %24, 1
  store i32 %25, ptr %6, align 4, !tbaa !43
  br label %8, !llvm.loop !163

26:                                               ; preds = %8
  %27 = load ptr, ptr %5, align 8, !tbaa !121
  call void @av_free(ptr noundef %27)
  call void @llvm.lifetime.end.p0(i64 4, ptr %6) #8
  call void @llvm.lifetime.end.p0(i64 8, ptr %5) #8
  ret void
}