; Function Attrs: nounwind uwtable
define internal void @kmsgrab_free_desc(ptr readnone captures(none) %0, ptr noundef %1) #1 {
  %3 = load i32, ptr %1, align 8, !tbaa !115
  %4 = icmp sgt i32 %3, 0
  br i1 %4, label %.lr.ph, label %._crit_edge

.lr.ph:                                           ; preds = %2
  %5 = getelementptr inbounds nuw i8, ptr %1, i64 8
  br label %6

6:                                                ; preds = %.lr.ph, %6
  %indvars.iv = phi i64 [ 0, %.lr.ph ], [ %indvars.iv.next, %6 ]
  %7 = getelementptr inbounds nuw [4 x %struct.AVDRMObjectDescriptor], ptr %5, i64 0, i64 %indvars.iv
  %8 = load i32, ptr %7, align 8, !tbaa !135
  %9 = tail call i32 @close(i32 noundef %8) #7
  %indvars.iv.next = add nuw nsw i64 %indvars.iv, 1
  %10 = load i32, ptr %1, align 8, !tbaa !115
  %11 = sext i32 %10 to i64
  %12 = icmp slt i64 %indvars.iv.next, %11
  br i1 %12, label %6, label %._crit_edge, !llvm.loop !136

._crit_edge:                                      ; preds = %6, %2
  tail call void @av_free(ptr noundef nonnull %1) #7
  ret void
}